; Function Attrs: nounwind sspstrong uwtable
define internal fastcc range(i32 -5, 1) i32 @add_opcode_rel_addr(ptr noundef captures(none) %0, i32 noundef range(i32 61, 87) %1, i32 noundef %2) unnamed_addr #4 {
  %4 = getelementptr inbounds nuw i8, ptr %0, i64 8
  %5 = load i32, ptr %4, align 8, !tbaa !115
  %6 = add i32 %5, 1
  %7 = getelementptr inbounds nuw i8, ptr %0, i64 12
  %8 = load i32, ptr %7, align 4, !tbaa !37
  %9 = icmp ult i32 %8, %6
  br i1 %9, label %.preheader.i, label %._crit_edge.i

._crit_edge.i:                                    ; preds = %3
  %.pre.i = load ptr, ptr %0, align 8, !tbaa !17
  br label %18

.preheader.i:                                     ; preds = %3, %.preheader.i
  %10 = phi i32 [ %11, %.preheader.i ], [ %8, %3 ]
  %11 = shl i32 %10, 1
  %12 = icmp ult i32 %11, %6
  br i1 %12, label %.preheader.i, label %13, !llvm.loop !186

13:                                               ; preds = %.preheader.i
  store i32 %11, ptr %7, align 4, !tbaa !37
  %14 = load ptr, ptr %0, align 8, !tbaa !17
  %15 = zext i32 %11 to i64
  %16 = tail call ptr @realloc(ptr noundef %14, i64 noundef %15) #21
  %.not.i = icmp eq ptr %16, null
  br i1 %.not.i, label %add_opcode.exit, label %17

17:                                               ; preds = %13
  store ptr %16, ptr %0, align 8, !tbaa !17
  %.pre29.i = load i32, ptr %4, align 8, !tbaa !115
  br label %18

18:                                               ; preds = %17, %._crit_edge.i
  %19 = phi i32 [ %5, %._crit_edge.i ], [ %.pre29.i, %17 ]
  %20 = phi ptr [ %.pre.i, %._crit_edge.i ], [ %16, %17 ]
  %21 = trunc nuw nsw i32 %1 to i8
  %22 = zext i32 %19 to i64
  %23 = getelementptr i8, ptr %20, i64 %22
  store i8 %21, ptr %23, align 1, !tbaa !34
  %24 = load i32, ptr %4, align 8, !tbaa !115
  %25 = icmp ult i32 %24, %6
  br i1 %25, label %26, label %27

26:                                               ; preds = %18
  store i32 %6, ptr %4, align 8, !tbaa !115
  br label %27

27:                                               ; preds = %26, %18
  %28 = phi i32 [ %6, %26 ], [ %24, %18 ]
  %29 = add i32 %28, 4
  %30 = load i32, ptr %7, align 4, !tbaa !37
  %31 = icmp ult i32 %30, %29
  br i1 %31, label %.preheader.i10, label %._crit_edge.i8

._crit_edge.i8:                                   ; preds = %27
  %.pre.i9 = load ptr, ptr %0, align 8, !tbaa !17
  br label %40

.preheader.i10:                                   ; preds = %27, %.preheader.i10
  %32 = phi i32 [ %33, %.preheader.i10 ], [ %30, %27 ]
  %33 = shl i32 %32, 1
  %34 = icmp ult i32 %33, %29
  br i1 %34, label %.preheader.i10, label %35, !llvm.loop !187

35:                                               ; preds = %.preheader.i10
  store i32 %33, ptr %7, align 4, !tbaa !37
  %36 = load ptr, ptr %0, align 8, !tbaa !17
  %37 = zext i32 %33 to i64
  %38 = tail call ptr @realloc(ptr noundef %36, i64 noundef %37) #21
  %.not.i11 = icmp eq ptr %38, null
  br i1 %.not.i11, label %add_opcode.exit, label %39

39:                                               ; preds = %35
  store ptr %38, ptr %0, align 8, !tbaa !17
  %.pre29.i12 = load i32, ptr %4, align 8, !tbaa !115
  br label %40

40:                                               ; preds = %39, %._crit_edge.i8
  %41 = phi i32 [ %28, %._crit_edge.i8 ], [ %.pre29.i12, %39 ]
  %42 = phi ptr [ %.pre.i9, %._crit_edge.i8 ], [ %38, %39 ]
  %43 = zext i32 %41 to i64
  %44 = getelementptr i8, ptr %42, i64 %43
  store i32 %2, ptr %44, align 1
  %45 = load i32, ptr %4, align 8, !tbaa !115
  %46 = icmp ult i32 %45, %29
  br i1 %46, label %47, label %add_opcode.exit

47:                                               ; preds = %40
  store i32 %29, ptr %4, align 8, !tbaa !115
  br label %add_opcode.exit

add_opcode.exit:                                  ; preds = %47, %40, %35, %13
  %.0 = phi i32 [ -5, %13 ], [ -5, %35 ], [ 0, %47 ], [ 0, %40 ]
  ret i32 %.0
}